; Function Attrs: mustprogress nofree norecurse nosync nounwind willreturn memory(argmem: read)
define dso_local noundef i32 @_Z7GetHashPKc(ptr nocapture noundef readonly %0) local_unnamed_addr #2 {
  %2 = load i8, ptr %0, align 1
  %.not8 = icmp eq i8 %2, 0
  br i1 %.not8, label %._crit_edge, label %.lr.ph

.lr.ph:                                           ; preds = %1, %.lr.ph
  %indvars.iv = phi i64 [ %indvars.iv.next, %.lr.ph ], [ 0, %1 ]
  %3 = phi i8 [ %8, %.lr.ph ], [ %2, %1 ]
  %.069 = phi i32 [ %6, %.lr.ph ], [ 91, %1 ]
  %4 = mul i32 %.069, 47
  %5 = sext i8 %3 to i32
  %6 = add i32 %4, %5
  %indvars.iv.next = add nuw nsw i64 %indvars.iv, 1
  %7 = getelementptr inbounds i8, ptr %0, i64 %indvars.iv.next
  %8 = load i8, ptr %7, align 1
  %.not = icmp eq i8 %8, 0
  br i1 %.not, label %._crit_edge, label %.lr.ph, !llvm.loop !4

._crit_edge:                                      ; preds = %.lr.ph, %1
  %.06.lcssa = phi i32 [ 91, %1 ], [ %6, %.lr.ph ]
  ret i32 %.06.lcssa
}